target datalayout = "e-m:e-p270:32:32-p271:32:32-p272:64:64-i64:64-i128:128-f80:128-n8:16:32:64-S128"
target triple = "x86_64-pc-linux-gnu"

%struct.Expr = type { i32 }
%struct.JsonReturning = type { i32, ptr, i32, i32 }
%struct.JsonFormat = type { i32, i32, i32, i32 }
%struct.JsonConstructorExpr = type { %struct.Expr, i32, ptr, ptr, ptr, ptr, i8, i8, i32 }

@.str.171 = private unnamed_addr constant [18 x i8] c" WITH UNIQUE KEYS\00", align 1
@.str.267 = private unnamed_addr constant [14 x i8] c" FORMAT JSONB\00", align 1
@.str.268 = private unnamed_addr constant [13 x i8] c" FORMAT JSON\00", align 1
@.str.269 = private unnamed_addr constant [6 x i8] c"UTF16\00", align 1
@.str.270 = private unnamed_addr constant [6 x i8] c"UTF32\00", align 1
@.str.271 = private unnamed_addr constant [5 x i8] c"UTF8\00", align 1
@.str.272 = private unnamed_addr constant [13 x i8] c" ENCODING %s\00", align 1
@.str.282 = private unnamed_addr constant [16 x i8] c" ABSENT ON NULL\00", align 1
@.str.283 = private unnamed_addr constant [14 x i8] c" NULL ON NULL\00", align 1
@.str.284 = private unnamed_addr constant [14 x i8] c" RETURNING %s\00", align 1

; Function Attrs: nounwind uwtable
define internal void @get_json_format(ptr noundef %0, ptr noundef %1) #0 {
  %3 = alloca ptr, align 8
  %4 = alloca ptr, align 8
  %5 = alloca ptr, align 8
  store ptr %0, ptr %3, align 8
  store ptr %1, ptr %4, align 8
  %6 = load ptr, ptr %3, align 8
  %7 = getelementptr inbounds nuw %struct.JsonFormat, ptr %6, i32 0, i32 1
  %8 = load i32, ptr %7, align 4
  %9 = icmp eq i32 %8, 0
  br i1 %9, label %10, label %11

10:                                               ; preds = %2
  br label %38

11:                                               ; preds = %2
  %12 = load ptr, ptr %4, align 8
  %13 = load ptr, ptr %3, align 8
  %14 = getelementptr inbounds nuw %struct.JsonFormat, ptr %13, i32 0, i32 1
  %15 = load i32, ptr %14, align 4
  %16 = icmp eq i32 %15, 2
  %17 = select i1 %16, ptr @.str.267, ptr @.str.268
  call void @appendStringInfoString(ptr noundef %12, ptr noundef %17)
  %18 = load ptr, ptr %3, align 8
  %19 = getelementptr inbounds nuw %struct.JsonFormat, ptr %18, i32 0, i32 2
  %20 = load i32, ptr %19, align 4
  %21 = icmp ne i32 %20, 0
  br i1 %21, label %22, label %38

22:                                               ; preds = %11
  call void @llvm.lifetime.start.p0(i64 8, ptr %5) #10
  %23 = load ptr, ptr %3, align 8
  %24 = getelementptr inbounds nuw %struct.JsonFormat, ptr %23, i32 0, i32 2
  %25 = load i32, ptr %24, align 4
  %26 = icmp eq i32 %25, 2
  br i1 %26, label %27, label %28

27:                                               ; preds = %22
  br label %34

28:                                               ; preds = %22
  %29 = load ptr, ptr %3, align 8
  %30 = getelementptr inbounds nuw %struct.JsonFormat, ptr %29, i32 0, i32 2
  %31 = load i32, ptr %30, align 4
  %32 = icmp eq i32 %31, 3
  %33 = select i1 %32, ptr @.str.270, ptr @.str.271
  br label %34

34:                                               ; preds = %28, %27
  %35 = phi ptr [ @.str.269, %27 ], [ %33, %28 ]
  store ptr %35, ptr %5, align 8
  %36 = load ptr, ptr %4, align 8
  %37 = load ptr, ptr %5, align 8
  call void (ptr, ptr, ...) @appendStringInfo(ptr noundef %36, ptr noundef @.str.272, ptr noundef %37)
  call void @llvm.lifetime.end.p0(i64 8, ptr %5) #10
  br label %38

38:                                               ; preds = %10, %34, %11
  ret void
}

; Function Attrs: nounwind uwtable
define internal void @get_json_returning(ptr noundef %0, ptr noundef %1, i1 noundef zeroext %2) #0 {
  %4 = alloca ptr, align 8
  %5 = alloca ptr, align 8
  %6 = alloca i8, align 1
  store ptr %0, ptr %4, align 8
  store ptr %1, ptr %5, align 8
  %7 = zext i1 %2 to i8
  store i8 %7, ptr %6, align 1
  %8 = load ptr, ptr %4, align 8
  %9 = getelementptr inbounds nuw %struct.JsonReturning, ptr %8, i32 0, i32 2
  %10 = load i32, ptr %9, align 8
  %11 = icmp ne i32 %10, 0
  br i1 %11, label %13, label %12

12:                                               ; preds = %3
  br label %41

13:                                               ; preds = %3
  %14 = load ptr, ptr %5, align 8
  %15 = load ptr, ptr %4, align 8
  %16 = getelementptr inbounds nuw %struct.JsonReturning, ptr %15, i32 0, i32 2
  %17 = load i32, ptr %16, align 8
  %18 = load ptr, ptr %4, align 8
  %19 = getelementptr inbounds nuw %struct.JsonReturning, ptr %18, i32 0, i32 3
  %20 = load i32, ptr %19, align 4
  %21 = call ptr @format_type_with_typemod(i32 noundef %17, i32 noundef %20)
  call void (ptr, ptr, ...) @appendStringInfo(ptr noundef %14, ptr noundef @.str.284, ptr noundef %21)
  %22 = load i8, ptr %6, align 1, !range !4, !noundef !5
  %23 = trunc i8 %22 to i1
  br i1 %23, label %24, label %36

24:                                               ; preds = %13
  %25 = load ptr, ptr %4, align 8
  %26 = getelementptr inbounds nuw %struct.JsonReturning, ptr %25, i32 0, i32 1
  %27 = load ptr, ptr %26, align 8
  %28 = getelementptr inbounds nuw %struct.JsonFormat, ptr %27, i32 0, i32 1
  %29 = load i32, ptr %28, align 4
  %30 = load ptr, ptr %4, align 8
  %31 = getelementptr inbounds nuw %struct.JsonReturning, ptr %30, i32 0, i32 2
  %32 = load i32, ptr %31, align 8
  %33 = icmp eq i32 %32, 3802
  %34 = select i1 %33, i32 2, i32 1
  %35 = icmp ne i32 %29, %34
  br i1 %35, label %36, label %41

36:                                               ; preds = %24, %13
  %37 = load ptr, ptr %4, align 8
  %38 = getelementptr inbounds nuw %struct.JsonReturning, ptr %37, i32 0, i32 1
  %39 = load ptr, ptr %38, align 8
  %40 = load ptr, ptr %5, align 8
  call void @get_json_format(ptr noundef %39, ptr noundef %40)
  br label %41

41:                                               ; preds = %12, %36, %24
  ret void
}

; Function Attrs: nounwind uwtable
define internal void @get_json_constructor_options(ptr noundef %0, ptr noundef %1) #0 {
  %3 = alloca ptr, align 8
  %4 = alloca ptr, align 8
  store ptr %0, ptr %3, align 8
  store ptr %1, ptr %4, align 8
  %5 = load ptr, ptr %3, align 8
  %6 = getelementptr inbounds nuw %struct.JsonConstructorExpr, ptr %5, i32 0, i32 6
  %7 = load i8, ptr %6, align 8, !range !4, !noundef !5
  %8 = trunc i8 %7 to i1
  br i1 %8, label %9, label %22

9:                                                ; preds = %2
  %10 = load ptr, ptr %3, align 8
  %11 = getelementptr inbounds nuw %struct.JsonConstructorExpr, ptr %10, i32 0, i32 1
  %12 = load i32, ptr %11, align 4
  %13 = icmp eq i32 %12, 1
  br i1 %13, label %19, label %14

14:                                               ; preds = %9
  %15 = load ptr, ptr %3, align 8
  %16 = getelementptr inbounds nuw %struct.JsonConstructorExpr, ptr %15, i32 0, i32 1
  %17 = load i32, ptr %16, align 4
  %18 = icmp eq i32 %17, 3
  br i1 %18, label %19, label %21

19:                                               ; preds = %14, %9
  %20 = load ptr, ptr %4, align 8
  call void @appendStringInfoString(ptr noundef %20, ptr noundef @.str.282)
  br label %21

21:                                               ; preds = %19, %14
  br label %35

22:                                               ; preds = %2
  %23 = load ptr, ptr %3, align 8
  %24 = getelementptr inbounds nuw %struct.JsonConstructorExpr, ptr %23, i32 0, i32 1
  %25 = load i32, ptr %24, align 4
  %26 = icmp eq i32 %25, 2
  br i1 %26, label %32, label %27

27:                                               ; preds = %22
  %28 = load ptr, ptr %3, align 8
  %29 = getelementptr inbounds nuw %struct.JsonConstructorExpr, ptr %28, i32 0, i32 1
  %30 = load i32, ptr %29, align 4
  %31 = icmp eq i32 %30, 4
  br i1 %31, label %32, label %34

32:                                               ; preds = %27, %22
  %33 = load ptr, ptr %4, align 8
  call void @appendStringInfoString(ptr noundef %33, ptr noundef @.str.283)
  br label %34

34:                                               ; preds = %32, %27
  br label %35

35:                                               ; preds = %34, %21
  %36 = load ptr, ptr %3, align 8
  %37 = getelementptr inbounds nuw %struct.JsonConstructorExpr, ptr %36, i32 0, i32 7
  %38 = load i8, ptr %37, align 1, !range !4, !noundef !5
  %39 = trunc i8 %38 to i1
  br i1 %39, label %40, label %42

40:                                               ; preds = %35
  %41 = load ptr, ptr %4, align 8
  call void @appendStringInfoString(ptr noundef %41, ptr noundef @.str.171)
  br label %42

42:                                               ; preds = %40, %35
  %43 = load ptr, ptr %3, align 8
  %44 = getelementptr inbounds nuw %struct.JsonConstructorExpr, ptr %43, i32 0, i32 1
  %45 = load i32, ptr %44, align 4
  %46 = icmp ne i32 %45, 5
  br i1 %46, label %47, label %57

47:                                               ; preds = %42
  %48 = load ptr, ptr %3, align 8
  %49 = getelementptr inbounds nuw %struct.JsonConstructorExpr, ptr %48, i32 0, i32 1
  %50 = load i32, ptr %49, align 4
  %51 = icmp ne i32 %50, 6
  br i1 %51, label %52, label %57

52:                                               ; preds = %47
  %53 = load ptr, ptr %3, align 8
  %54 = getelementptr inbounds nuw %struct.JsonConstructorExpr, ptr %53, i32 0, i32 5
  %55 = load ptr, ptr %54, align 8
  %56 = load ptr, ptr %4, align 8
  call void @get_json_returning(ptr noundef %55, ptr noundef %56, i1 noundef zeroext true)
  br label %57

57:                                               ; preds = %52, %47, %42
  ret void
}